target datalayout = "e-m:e-p270:32:32-p271:32:32-p272:64:64-i64:64-i128:128-f80:128-n8:16:32:64-S128"
target triple = "x86_64-pc-linux-gnu"

%struct.FunctionCallInfoBaseData = type { ptr, ptr, ptr, i32, i8, i16, [0 x %struct.NullableDatum] }
%struct.NullableDatum = type { i64, i8 }
%struct.StringInfoData = type { ptr, i32, i32, i32 }

; Function Attrs: inlinehint nounwind uwtable
define internal i64 @PointerGetDatum(ptr noundef %0) #2 {
  %2 = alloca ptr, align 8
  store ptr %0, ptr %2, align 8
  %3 = load ptr, ptr %2, align 8
  %4 = ptrtoint ptr %3 to i64
  ret i64 %4
}

; Function Attrs: nounwind uwtable
define internal ptr @string_to_text(ptr noundef %0) #0 {
  %2 = alloca ptr, align 8
  %3 = alloca ptr, align 8
  store ptr %0, ptr %2, align 8
  call void @llvm.lifetime.start.p0(i64 8, ptr %3) #10
  %4 = load ptr, ptr %2, align 8
  %5 = call ptr @cstring_to_text(ptr noundef %4)
  store ptr %5, ptr %3, align 8
  %6 = load ptr, ptr %2, align 8
  call void @pfree(ptr noundef %6)
  %7 = load ptr, ptr %3, align 8
  call void @llvm.lifetime.end.p0(i64 8, ptr %3) #10
  ret ptr %7
}

; Function Attrs: inlinehint nounwind uwtable
define internal i64 @ObjectIdGetDatum(i32 noundef %0) #2 {
  %2 = alloca i32, align 4
  store i32 %0, ptr %2, align 4
  %3 = load i32, ptr %2, align 4
  %4 = zext i32 %3 to i64
  ret i64 %4
}

; Function Attrs: inlinehint nounwind uwtable
define internal i32 @DatumGetObjectId(i64 noundef %0) #2 {
  %2 = alloca i64, align 8
  store i64 %0, ptr %2, align 8
  %3 = load i64, ptr %2, align 8
  %4 = trunc i64 %3 to i32
  ret i32 %4
}

; Function Attrs: nounwind uwtable
define dso_local i64 @pg_get_function_arguments(ptr noundef %0) #0 {
  %2 = alloca i64, align 8
  %3 = alloca ptr, align 8
  %4 = alloca i32, align 4
  %5 = alloca %struct.StringInfoData, align 8
  %6 = alloca ptr, align 8
  %7 = alloca i32, align 4
  store ptr %0, ptr %3, align 8
  call void @llvm.lifetime.start.p0(i64 4, ptr %4) #10
  %8 = load ptr, ptr %3, align 8
  %9 = getelementptr inbounds nuw %struct.FunctionCallInfoBaseData, ptr %8, i32 0, i32 6
  %10 = getelementptr inbounds [0 x %struct.NullableDatum], ptr %9, i64 0, i64 0
  %11 = getelementptr inbounds nuw %struct.NullableDatum, ptr %10, i32 0, i32 0
  %12 = load i64, ptr %11, align 8
  %13 = call i32 @DatumGetObjectId(i64 noundef %12)
  store i32 %13, ptr %4, align 4
  call void @llvm.lifetime.start.p0(i64 24, ptr %5) #10
  call void @llvm.lifetime.start.p0(i64 8, ptr %6) #10
  %14 = load i32, ptr %4, align 4
  %15 = call i64 @ObjectIdGetDatum(i32 noundef %14)
  %16 = call ptr @SearchSysCache1(i32 noundef 47, i64 noundef %15)
  store ptr %16, ptr %6, align 8
  %17 = load ptr, ptr %6, align 8
  %18 = icmp ne ptr %17, null
  br i1 %18, label %25, label %19

19:                                               ; preds = %1
  br label %20

20:                                               ; preds = %19
  %21 = load ptr, ptr %3, align 8
  %22 = getelementptr inbounds nuw %struct.FunctionCallInfoBaseData, ptr %21, i32 0, i32 4
  store i8 1, ptr %22, align 4
  store i64 0, ptr %2, align 8
  store i32 1, ptr %7, align 4
  br label %33

23:                                               ; No predecessors!
  br label %24

24:                                               ; preds = %23
  br label %25

25:                                               ; preds = %24, %1
  call void @initStringInfo(ptr noundef %5)
  %26 = load ptr, ptr %6, align 8
  %27 = call i32 @print_function_arguments(ptr noundef %5, ptr noundef %26, i1 noundef zeroext false, i1 noundef zeroext true)
  %28 = load ptr, ptr %6, align 8
  call void @ReleaseSysCache(ptr noundef %28)
  %29 = getelementptr inbounds nuw %struct.StringInfoData, ptr %5, i32 0, i32 0
  %30 = load ptr, ptr %29, align 8
  %31 = call ptr @string_to_text(ptr noundef %30)
  %32 = call i64 @PointerGetDatum(ptr noundef %31)
  store i64 %32, ptr %2, align 8
  store i32 1, ptr %7, align 4
  br label %33

33:                                               ; preds = %25, %20
  call void @llvm.lifetime.end.p0(i64 8, ptr %6) #10
  call void @llvm.lifetime.end.p0(i64 24, ptr %5) #10
  call void @llvm.lifetime.end.p0(i64 4, ptr %4) #10
  %34 = load i64, ptr %2, align 8
  ret i64 %34
}