; Function Attrs: nounwind uwtable
define dso_local i64 @pg_get_function_arguments(ptr noundef captures(none) %0) local_unnamed_addr #0 {
  %2 = alloca %struct.StringInfoData, align 8
  %3 = getelementptr inbounds nuw i8, ptr %0, i64 32
  %4 = load i64, ptr %3, align 8
  call void @llvm.lifetime.start.p0(i64 24, ptr nonnull %2) #11
  %5 = and i64 %4, 4294967295
  %6 = tail call ptr @SearchSysCache1(i32 noundef 47, i64 noundef %5) #11
  %.not = icmp eq ptr %6, null
  br i1 %.not, label %7, label %9

7:                                                ; preds = %1
  %8 = getelementptr inbounds nuw i8, ptr %0, i64 28
  store i8 1, ptr %8, align 4
  br label %14

9:                                                ; preds = %1
  call void @initStringInfo(ptr noundef nonnull %2) #11
  %10 = call fastcc i32 @print_function_arguments(ptr noundef %2, ptr noundef %6, i1 noundef zeroext false, i1 noundef zeroext true)
  call void @ReleaseSysCache(ptr noundef nonnull %6) #11
  %11 = load ptr, ptr %2, align 8
  %12 = call ptr @cstring_to_text(ptr noundef %11) #11
  call void @pfree(ptr noundef %11) #11
  %13 = ptrtoint ptr %12 to i64
  br label %14

14:                                               ; preds = %9, %7
  %.0 = phi i64 [ %13, %9 ], [ 0, %7 ]
  call void @llvm.lifetime.end.p0(i64 24, ptr nonnull %2) #11
  ret i64 %.0
}